; Function Attrs: mustprogress nounwind uwtable
define internal fastcc ptr @_ZN4llvm9StringMapIN12_GLOBAL__N_110StructInfoENS_15MallocAllocatorEE4findENS_9StringRefE(ptr noundef nonnull align 8 dereferenceable(24) %0, ptr %1, i64 %2) unnamed_addr #0 align 2 {
  %4 = tail call noundef i32 @_ZN4llvm13StringMapImpl4hashENS_9StringRefE(ptr %1, i64 %2) #24
  %5 = tail call noundef i32 @_ZNK4llvm13StringMapImpl7FindKeyENS_9StringRefEj(ptr noundef nonnull align 8 dereferenceable(24) %0, ptr %1, i64 %2, i32 noundef %4) #24
  %6 = icmp eq i32 %5, -1
  %.val.i = load ptr, ptr %0, align 8
  %7 = getelementptr inbounds nuw i8, ptr %0, i64 8
  %.val5.i = load i32, ptr %7, align 8
  %8 = zext i32 %.val5.i to i64
  %9 = sext i32 %5 to i64
  %.sroa.0.0.v.i = select i1 %6, i64 %8, i64 %9
  %.sroa.0.0.i = getelementptr inbounds ptr, ptr %.val.i, i64 %.sroa.0.0.v.i
  ret ptr %.sroa.0.0.i
}